target datalayout = "e-m:e-p270:32:32-p271:32:32-p272:64:64-i64:64-i128:128-f80:128-n8:16:32:64-S128"
target triple = "x86_64-pc-linux-gnu"

%struct.SUNMemoryHelper_ = type { ptr, ptr, ptr }
%struct.SUNMemoryHelper_Ops_ = type { ptr, ptr, ptr, ptr, ptr, ptr, ptr }

; Function Attrs: nounwind uwtable
define i32 @SUNMemoryHelper_Copy(ptr noundef %0, ptr noundef %1, ptr noundef %2, i64 noundef %3, ptr noundef %4) #0 {
  %6 = alloca ptr, align 8
  %7 = alloca ptr, align 8
  %8 = alloca ptr, align 8
  %9 = alloca i64, align 8
  %10 = alloca ptr, align 8
  %11 = alloca i32, align 4
  %12 = alloca ptr, align 8
  store ptr %0, ptr %6, align 8, !tbaa !14
  store ptr %1, ptr %7, align 8, !tbaa !8
  store ptr %2, ptr %8, align 8, !tbaa !8
  store i64 %3, ptr %9, align 8, !tbaa !35
  store ptr %4, ptr %10, align 8, !tbaa !28
  call void @llvm.lifetime.start.p0(i64 4, ptr %11) #6
  store i32 0, ptr %11, align 4, !tbaa !29
  call void @llvm.lifetime.start.p0(i64 8, ptr %12) #6
  %13 = load ptr, ptr %6, align 8, !tbaa !14
  %14 = getelementptr inbounds nuw %struct.SUNMemoryHelper_, ptr %13, i32 0, i32 2
  %15 = load ptr, ptr %14, align 8, !tbaa !20
  store ptr %15, ptr %12, align 8, !tbaa !3
  %16 = load ptr, ptr %6, align 8, !tbaa !14
  %17 = getelementptr inbounds nuw %struct.SUNMemoryHelper_, ptr %16, i32 0, i32 1
  %18 = load ptr, ptr %17, align 8, !tbaa !16
  %19 = getelementptr inbounds nuw %struct.SUNMemoryHelper_Ops_, ptr %18, i32 0, i32 2
  %20 = load ptr, ptr %19, align 8, !tbaa !24
  %21 = load ptr, ptr %6, align 8, !tbaa !14
  %22 = load ptr, ptr %7, align 8, !tbaa !8
  %23 = load ptr, ptr %8, align 8, !tbaa !8
  %24 = load i64, ptr %9, align 8, !tbaa !35
  %25 = load ptr, ptr %10, align 8, !tbaa !28
  %26 = call i32 %20(ptr noundef %21, ptr noundef %22, ptr noundef %23, i64 noundef %24, ptr noundef %25)
  store i32 %26, ptr %11, align 4, !tbaa !29
  %27 = load i32, ptr %11, align 4, !tbaa !29
  call void @llvm.lifetime.end.p0(i64 8, ptr %12) #6
  call void @llvm.lifetime.end.p0(i64 4, ptr %11) #6
  ret i32 %27
}

; Function Attrs: nounwind uwtable
define i32 @SUNMemoryHelper_CopyAsync(ptr noundef %0, ptr noundef %1, ptr noundef %2, i64 noundef %3, ptr noundef %4) #0 {
  %6 = alloca ptr, align 8
  %7 = alloca ptr, align 8
  %8 = alloca ptr, align 8
  %9 = alloca i64, align 8
  %10 = alloca ptr, align 8
  %11 = alloca i32, align 4
  store ptr %0, ptr %6, align 8, !tbaa !14
  store ptr %1, ptr %7, align 8, !tbaa !8
  store ptr %2, ptr %8, align 8, !tbaa !8
  store i64 %3, ptr %9, align 8, !tbaa !35
  store ptr %4, ptr %10, align 8, !tbaa !28
  call void @llvm.lifetime.start.p0(i64 4, ptr %11) #6
  store i32 0, ptr %11, align 4, !tbaa !29
  %12 = load ptr, ptr %6, align 8, !tbaa !14
  %13 = getelementptr inbounds nuw %struct.SUNMemoryHelper_, ptr %12, i32 0, i32 1
  %14 = load ptr, ptr %13, align 8, !tbaa !16
  %15 = getelementptr inbounds nuw %struct.SUNMemoryHelper_Ops_, ptr %14, i32 0, i32 3
  %16 = load ptr, ptr %15, align 8, !tbaa !36
  %17 = icmp ne ptr %16, null
  br i1 %17, label %25, label %18

18:                                               ; preds = %5
  %19 = load ptr, ptr %6, align 8, !tbaa !14
  %20 = load ptr, ptr %7, align 8, !tbaa !8
  %21 = load ptr, ptr %8, align 8, !tbaa !8
  %22 = load i64, ptr %9, align 8, !tbaa !35
  %23 = load ptr, ptr %10, align 8, !tbaa !28
  %24 = call i32 @SUNMemoryHelper_Copy(ptr noundef %19, ptr noundef %20, ptr noundef %21, i64 noundef %22, ptr noundef %23)
  store i32 %24, ptr %11, align 4, !tbaa !29
  br label %37

25:                                               ; preds = %5
  %26 = load ptr, ptr %6, align 8, !tbaa !14
  %27 = getelementptr inbounds nuw %struct.SUNMemoryHelper_, ptr %26, i32 0, i32 1
  %28 = load ptr, ptr %27, align 8, !tbaa !16
  %29 = getelementptr inbounds nuw %struct.SUNMemoryHelper_Ops_, ptr %28, i32 0, i32 3
  %30 = load ptr, ptr %29, align 8, !tbaa !36
  %31 = load ptr, ptr %6, align 8, !tbaa !14
  %32 = load ptr, ptr %7, align 8, !tbaa !8
  %33 = load ptr, ptr %8, align 8, !tbaa !8
  %34 = load i64, ptr %9, align 8, !tbaa !35
  %35 = load ptr, ptr %10, align 8, !tbaa !28
  %36 = call i32 %30(ptr noundef %31, ptr noundef %32, ptr noundef %33, i64 noundef %34, ptr noundef %35)
  store i32 %36, ptr %11, align 4, !tbaa !29
  br label %37

37:                                               ; preds = %25, %18
  %38 = load i32, ptr %11, align 4, !tbaa !29
  call void @llvm.lifetime.end.p0(i64 4, ptr %11) #6
  ret i32 %38
}