; Function Attrs: nounwind uwtable
define i32 @SUNMemoryHelper_CopyAsync(ptr noundef %0, ptr noundef %1, ptr noundef %2, i64 noundef %3, ptr noundef %4) local_unnamed_addr #6 {
  %6 = getelementptr inbounds nuw i8, ptr %0, i64 8
  %7 = load ptr, ptr %6, align 8, !tbaa !10
  %8 = getelementptr inbounds nuw i8, ptr %7, i64 24
  %9 = load ptr, ptr %8, align 8, !tbaa !24
  %.not = icmp eq ptr %9, null
  br i1 %.not, label %10, label %13

10:                                               ; preds = %5
  %11 = getelementptr inbounds nuw i8, ptr %7, i64 16
  %12 = load ptr, ptr %11, align 8, !tbaa !19
  br label %13

13:                                               ; preds = %5, %10
  %.sink = phi ptr [ %12, %10 ], [ %9, %5 ]
  %14 = tail call i32 %.sink(ptr noundef nonnull %0, ptr noundef %1, ptr noundef %2, i64 noundef %3, ptr noundef %4) #10
  ret i32 %14
}